target datalayout = "e-m:e-p270:32:32-p271:32:32-p272:64:64-i64:64-i128:128-f80:128-n8:16:32:64-S128"
target triple = "x86_64-pc-linux-gnu"

@.str.46 = private unnamed_addr constant [3 x i8] c"%s\00", align 1

; Function Attrs: mustprogress nounwind uwtable
define internal noundef i32 @_ZL14count_newlinesPKc(ptr noundef %0) #1 {
  %2 = alloca ptr, align 8
  %3 = alloca i32, align 4
  %4 = alloca ptr, align 8
  store ptr %0, ptr %2, align 8
  store i32 0, ptr %3, align 4
  %5 = load ptr, ptr %2, align 8
  %6 = call noundef ptr @strchr(ptr noundef %5, i32 noundef 10) #13
  store ptr %6, ptr %4, align 8
  br label %7

7:                                                ; preds = %13, %1
  %8 = load ptr, ptr %4, align 8
  %9 = icmp ne ptr %8, null
  br i1 %9, label %10, label %17

10:                                               ; preds = %7
  %11 = load i32, ptr %3, align 4
  %12 = add i32 %11, 1
  store i32 %12, ptr %3, align 4
  br label %13

13:                                               ; preds = %10
  %14 = load ptr, ptr %4, align 8
  %15 = getelementptr inbounds i8, ptr %14, i64 1
  %16 = call noundef ptr @strchr(ptr noundef %15, i32 noundef 10) #13
  store ptr %16, ptr %4, align 8
  br label %7, !llvm.loop !50

17:                                               ; preds = %7
  %18 = load i32, ptr %3, align 4
  ret i32 %18
}

; Function Attrs: mustprogress nounwind uwtable
define internal noundef zeroext i1 @_ZL17_print_ascii_filePKcP12outputStreamPjS0_(ptr noundef %0, ptr noundef %1, ptr noundef %2, ptr noundef %3) #1 {
  %5 = alloca i1, align 1
  %6 = alloca ptr, align 8
  %7 = alloca ptr, align 8
  %8 = alloca ptr, align 8
  %9 = alloca ptr, align 8
  %10 = alloca i32, align 4
  %11 = alloca [33 x i8], align 16
  %12 = alloca i64, align 8
  %13 = alloca i32, align 4
  store ptr %0, ptr %6, align 8
  store ptr %1, ptr %7, align 8
  store ptr %2, ptr %8, align 8
  store ptr %3, ptr %9, align 8
  %14 = load ptr, ptr %6, align 8
  %15 = call i32 (ptr, i32, ...) @open64(ptr noundef %14, i32 noundef 0)
  store i32 %15, ptr %10, align 4
  %16 = load i32, ptr %10, align 4
  %17 = icmp eq i32 %16, -1
  br i1 %17, label %18, label %19

18:                                               ; preds = %4
  store i1 false, ptr %5, align 1
  br label %53

19:                                               ; preds = %4
  %20 = load ptr, ptr %9, align 8
  %21 = icmp ne ptr %20, null
  br i1 %21, label %22, label %25

22:                                               ; preds = %19
  %23 = load ptr, ptr %7, align 8
  %24 = load ptr, ptr %9, align 8
  call void (ptr, ptr, ...) @_ZN12outputStream8print_crEPKcz(ptr noundef nonnull align 8 dereferenceable(56) %23, ptr noundef @.str.46, ptr noundef %24)
  br label %25

25:                                               ; preds = %22, %19
  %26 = getelementptr inbounds [33 x i8], ptr %11, i64 0, i64 32
  store i8 0, ptr %26, align 16
  store i32 0, ptr %13, align 4
  br label %27

27:                                               ; preds = %43, %25
  %28 = load i32, ptr %10, align 4
  %29 = getelementptr inbounds [33 x i8], ptr %11, i64 0, i64 0
  %30 = call i64 @read(i32 noundef %28, ptr noundef %29, i64 noundef 32)
  store i64 %30, ptr %12, align 8
  %31 = icmp sgt i64 %30, 0
  br i1 %31, label %32, label %44

32:                                               ; preds = %27
  %33 = load ptr, ptr %7, align 8
  %34 = getelementptr inbounds [33 x i8], ptr %11, i64 0, i64 0
  %35 = load i64, ptr %12, align 8
  call void @_ZN12outputStream9print_rawEPKcm(ptr noundef nonnull align 8 dereferenceable(56) %33, ptr noundef %34, i64 noundef %35)
  %36 = load ptr, ptr %8, align 8
  %37 = icmp ne ptr %36, null
  br i1 %37, label %38, label %43

38:                                               ; preds = %32
  %39 = getelementptr inbounds [33 x i8], ptr %11, i64 0, i64 0
  %40 = call noundef i32 @_ZL14count_newlinesPKc(ptr noundef %39)
  %41 = load i32, ptr %13, align 4
  %42 = add i32 %41, %40
  store i32 %42, ptr %13, align 4
  br label %43

43:                                               ; preds = %38, %32
  br label %27, !llvm.loop !21

44:                                               ; preds = %27
  %45 = load ptr, ptr %8, align 8
  %46 = icmp ne ptr %45, null
  br i1 %46, label %47, label %50

47:                                               ; preds = %44
  %48 = load i32, ptr %13, align 4
  %49 = load ptr, ptr %8, align 8
  store i32 %48, ptr %49, align 4
  br label %50

50:                                               ; preds = %47, %44
  %51 = load i32, ptr %10, align 4
  %52 = call i32 @close(i32 noundef %51)
  store i1 true, ptr %5, align 1
  br label %53

53:                                               ; preds = %50, %18
  %54 = load i1, ptr %5, align 1
  ret i1 %54
}