; Function Attrs: mustprogress nounwind uwtable
define internal fastcc noundef zeroext i1 @_ZL17_print_ascii_filePKcP12outputStreamPjS0_(ptr nocapture noundef readonly %0, ptr noundef %1, ptr noundef writeonly %2, ptr noundef %3) unnamed_addr #0 {
  %5 = alloca [33 x i8], align 16
  %6 = tail call i32 (ptr, i32, ...) @open64(ptr noundef %0, i32 noundef 0) #26
  %7 = icmp ne i32 %6, -1
  br i1 %7, label %8, label %28

8:                                                ; preds = %4
  %.not = icmp eq ptr %3, null
  br i1 %.not, label %10, label %9

9:                                                ; preds = %8
  tail call void (ptr, ptr, ...) @_ZN12outputStream8print_crEPKcz(ptr noundef nonnull align 8 dereferenceable(56) %1, ptr noundef nonnull @.str.46, ptr noundef nonnull %3) #26
  br label %10

10:                                               ; preds = %9, %8
  %11 = getelementptr inbounds i8, ptr %5, i64 32
  store i8 0, ptr %11, align 16
  %12 = call i64 @read(i32 noundef %6, ptr noundef nonnull %5, i64 noundef 32) #26
  %13 = icmp sgt i64 %12, 0
  br i1 %13, label %.lr.ph, label %._crit_edge

.lr.ph:                                           ; preds = %10
  %.not20 = icmp eq ptr %2, null
  br i1 %.not20, label %.lr.ph.split.us, label %.lr.ph.split

.lr.ph.split.us:                                  ; preds = %.lr.ph, %.lr.ph.split.us
  %14 = phi i64 [ %15, %.lr.ph.split.us ], [ %12, %.lr.ph ]
  call void @_ZN12outputStream9print_rawEPKcm(ptr noundef nonnull align 8 dereferenceable(56) %1, ptr noundef nonnull %5, i64 noundef %14) #26
  %15 = call i64 @read(i32 noundef %6, ptr noundef nonnull %5, i64 noundef 32) #26
  %16 = icmp sgt i64 %15, 0
  br i1 %16, label %.lr.ph.split.us, label %._crit_edge, !llvm.loop !21

.lr.ph.split:                                     ; preds = %.lr.ph, %_ZL14count_newlinesPKc.exit
  %17 = phi i64 [ %23, %_ZL14count_newlinesPKc.exit ], [ %12, %.lr.ph ]
  %.021 = phi i32 [ %22, %_ZL14count_newlinesPKc.exit ], [ 0, %.lr.ph ]
  call void @_ZN12outputStream9print_rawEPKcm(ptr noundef nonnull align 8 dereferenceable(56) %1, ptr noundef nonnull %5, i64 noundef %17) #26
  %18 = call noundef ptr @strchr(ptr noundef nonnull readonly dereferenceable(1) %5, i32 noundef 10) #27
  %.not5.i = icmp eq ptr %18, null
  br i1 %.not5.i, label %_ZL14count_newlinesPKc.exit, label %.lr.ph.i

.lr.ph.i:                                         ; preds = %.lr.ph.split, %.lr.ph.i
  %.07.i = phi ptr [ %21, %.lr.ph.i ], [ %18, %.lr.ph.split ]
  %.046.i = phi i32 [ %19, %.lr.ph.i ], [ 0, %.lr.ph.split ]
  %19 = add i32 %.046.i, 1
  %20 = getelementptr inbounds i8, ptr %.07.i, i64 1
  %21 = call noundef ptr @strchr(ptr noundef nonnull dereferenceable(1) %20, i32 noundef 10) #27
  %.not.i = icmp eq ptr %21, null
  br i1 %.not.i, label %_ZL14count_newlinesPKc.exit, label %.lr.ph.i, !llvm.loop !22

_ZL14count_newlinesPKc.exit:                      ; preds = %.lr.ph.i, %.lr.ph.split
  %.04.lcssa.i = phi i32 [ 0, %.lr.ph.split ], [ %19, %.lr.ph.i ]
  %22 = add i32 %.04.lcssa.i, %.021
  %23 = call i64 @read(i32 noundef %6, ptr noundef nonnull %5, i64 noundef 32) #26
  %24 = icmp sgt i64 %23, 0
  br i1 %24, label %.lr.ph.split, label %._crit_edge, !llvm.loop !21

._crit_edge:                                      ; preds = %_ZL14count_newlinesPKc.exit, %.lr.ph.split.us, %10
  %.0.lcssa = phi i32 [ 0, %10 ], [ 0, %.lr.ph.split.us ], [ %22, %_ZL14count_newlinesPKc.exit ]
  %.not19 = icmp eq ptr %2, null
  br i1 %.not19, label %26, label %25

25:                                               ; preds = %._crit_edge
  store i32 %.0.lcssa, ptr %2, align 4
  br label %26

26:                                               ; preds = %25, %._crit_edge
  %27 = call i32 @close(i32 noundef %6) #26
  br label %28

28:                                               ; preds = %4, %26
  ret i1 %7
}